target datalayout = "e-m:e-p270:32:32-p271:32:32-p272:64:64-i64:64-i128:128-f80:128-n8:16:32:64-S128"
target triple = "x86_64-pc-linux-gnu"

%"class.cv::utils::trace::details::Region" = type <{ ptr, i32, [4 x i8] }>
%"class.std::__cxx11::basic_string" = type { %"struct.std::__cxx11::basic_string<char>::_Alloc_hider", i64, %union.anon }
%"struct.std::__cxx11::basic_string<char>::_Alloc_hider" = type { ptr }
%union.anon = type { i64, [8 x i8] }

@__func__._ZN2cv3hal12cpu_baseline21cvtThreePlaneYUVtoBGREPKhmPhmiiibi = private unnamed_addr constant [22 x i8] c"cvtThreePlaneYUVtoBGR\00", align 1
@.str.11 = private unnamed_addr constant [134 x i8] c"generated/home/dtcxzyw/WorkSpace/Projects/compilers/llvm-opt-benchmark/bench/opencv/opencv/modules/imgproc/src/color_yuv.dispatch.cpp\00", align 1
@.str.21 = private unnamed_addr constant [95 x i8] c"HAL implementation cvtThreePlaneYUVtoBGR ==> hal_ni_cvtThreePlaneYUVtoBGR returned %d (0x%08x)\00", align 1

; Function Attrs: mustprogress nounwind uwtable
define linkonce_odr hidden noundef i32 @_Z28hal_ni_cvtThreePlaneYUVtoBGRPKhmPhmiiibi(ptr noundef %0, i64 noundef %1, ptr noundef %2, i64 noundef %3, i32 noundef %4, i32 noundef %5, i32 noundef %6, i1 noundef zeroext %7, i32 noundef %8) #2 comdat {
  %10 = alloca ptr, align 8
  %11 = alloca i64, align 8
  %12 = alloca ptr, align 8
  %13 = alloca i64, align 8
  %14 = alloca i32, align 4
  %15 = alloca i32, align 4
  %16 = alloca i32, align 4
  %17 = alloca i8, align 1
  %18 = alloca i32, align 4
  store ptr %0, ptr %10, align 8
  store i64 %1, ptr %11, align 8
  store ptr %2, ptr %12, align 8
  store i64 %3, ptr %13, align 8
  store i32 %4, ptr %14, align 4
  store i32 %5, ptr %15, align 4
  store i32 %6, ptr %16, align 4
  %19 = zext i1 %7 to i8
  store i8 %19, ptr %17, align 1
  store i32 %8, ptr %18, align 4
  ret i32 1
}

; Function Attrs: mustprogress uwtable
define void @_ZN2cv3hal21cvtThreePlaneYUVtoBGREPKhmPhmiiibi(ptr noundef %0, i64 noundef %1, ptr noundef %2, i64 noundef %3, i32 noundef %4, i32 noundef %5, i32 noundef %6, i1 noundef zeroext %7, i32 noundef %8) #0 personality ptr @__gxx_personality_v0 {
  %10 = alloca ptr, align 8
  %11 = alloca i64, align 8
  %12 = alloca ptr, align 8
  %13 = alloca i64, align 8
  %14 = alloca i32, align 4
  %15 = alloca i32, align 4
  %16 = alloca i32, align 4
  %17 = alloca i8, align 1
  %18 = alloca i32, align 4
  %19 = alloca %"class.cv::utils::trace::details::Region", align 8
  %20 = alloca i32, align 4
  %21 = alloca ptr, align 8
  %22 = alloca i32, align 4
  %23 = alloca i32, align 4
  %24 = alloca %"class.std::__cxx11::basic_string", align 8
  store ptr %0, ptr %10, align 8
  store i64 %1, ptr %11, align 8
  store ptr %2, ptr %12, align 8
  store i64 %3, ptr %13, align 8
  store i32 %4, ptr %14, align 4
  store i32 %5, ptr %15, align 4
  store i32 %6, ptr %16, align 4
  %25 = zext i1 %7 to i8
  store i8 %25, ptr %17, align 1
  store i32 %8, ptr %18, align 4
  call void @_ZN2cv5utils5trace7details6RegionC1ERKNS3_21LocationStaticStorageE(ptr noundef nonnull align 8 dereferenceable(12) %19, ptr noundef nonnull align 8 dereferenceable(32) @_ZZN2cv3hal21cvtThreePlaneYUVtoBGREPKhmPhmiiibiE25__cv_trace_location_fn173)
  %26 = load ptr, ptr %10, align 8
  %27 = load i64, ptr %11, align 8
  %28 = load ptr, ptr %12, align 8
  %29 = load i64, ptr %13, align 8
  %30 = load i32, ptr %14, align 4
  %31 = load i32, ptr %15, align 4
  %32 = load i32, ptr %16, align 4
  %33 = load i8, ptr %17, align 1
  %34 = trunc i8 %33 to i1
  %35 = load i32, ptr %18, align 4
  %36 = invoke noundef i32 @_Z28hal_ni_cvtThreePlaneYUVtoBGRPKhmPhmiiibi(ptr noundef %26, i64 noundef %27, ptr noundef %28, i64 noundef %29, i32 noundef %30, i32 noundef %31, i32 noundef %32, i1 noundef zeroext %34, i32 noundef %35)
          to label %37 unwind label %41

37:                                               ; preds = %9
  store i32 %36, ptr %20, align 4
  %38 = load i32, ptr %20, align 4
  %39 = icmp eq i32 %38, 0
  br i1 %39, label %40, label %45

40:                                               ; preds = %37
  store i32 1, ptr %23, align 4
  br label %70

41:                                               ; preds = %58, %48, %9
  %42 = landingpad { ptr, i32 }
          cleanup
  %43 = extractvalue { ptr, i32 } %42, 0
  store ptr %43, ptr %21, align 8
  %44 = extractvalue { ptr, i32 } %42, 1
  store i32 %44, ptr %22, align 4
  br label %71

45:                                               ; preds = %37
  %46 = load i32, ptr %20, align 4
  %47 = icmp ne i32 %46, 1
  br i1 %47, label %48, label %57

48:                                               ; preds = %45
  %49 = load i32, ptr %20, align 4
  %50 = load i32, ptr %20, align 4
  invoke void (ptr, ptr, ...) @_ZN2cv6formatB5cxx11EPKcz(ptr dead_on_unwind writable sret(%"class.std::__cxx11::basic_string") align 8 %24, ptr noundef @.str.21, i32 noundef %49, i32 noundef %50)
          to label %51 unwind label %41

51:                                               ; preds = %48
  invoke void @_ZN2cv5errorEiRKNSt7__cxx1112basic_stringIcSt11char_traitsIcESaIcEEEPKcS9_i(i32 noundef -3, ptr noundef nonnull align 8 dereferenceable(32) %24, ptr noundef @__func__._ZN2cv3hal12cpu_baseline21cvtThreePlaneYUVtoBGREPKhmPhmiiibi, ptr noundef @.str.11, i32 noundef 175) #12
          to label %52 unwind label %53

52:                                               ; preds = %51
  unreachable

53:                                               ; preds = %51
  %54 = landingpad { ptr, i32 }
          cleanup
  %55 = extractvalue { ptr, i32 } %54, 0
  store ptr %55, ptr %21, align 8
  %56 = extractvalue { ptr, i32 } %54, 1
  store i32 %56, ptr %22, align 4
  call void @_ZNSt7__cxx1112basic_stringIcSt11char_traitsIcESaIcEED1Ev(ptr noundef nonnull align 8 dereferenceable(32) %24) #10
  br label %71

57:                                               ; preds = %45
  br label %58

58:                                               ; preds = %57
  %59 = load ptr, ptr %10, align 8
  %60 = load i64, ptr %11, align 8
  %61 = load ptr, ptr %12, align 8
  %62 = load i64, ptr %13, align 8
  %63 = load i32, ptr %14, align 4
  %64 = load i32, ptr %15, align 4
  %65 = load i32, ptr %16, align 4
  %66 = load i8, ptr %17, align 1
  %67 = trunc i8 %66 to i1
  %68 = load i32, ptr %18, align 4
  invoke void @_ZN2cv3hal12cpu_baseline21cvtThreePlaneYUVtoBGREPKhmPhmiiibi(ptr noundef %59, i64 noundef %60, ptr noundef %61, i64 noundef %62, i32 noundef %63, i32 noundef %64, i32 noundef %65, i1 noundef zeroext %67, i32 noundef %68)
          to label %69 unwind label %41

69:                                               ; preds = %58
  store i32 1, ptr %23, align 4
  br label %70

70:                                               ; preds = %69, %40
  call void @_ZN2cv5utils5trace7details6RegionD2Ev(ptr noundef nonnull align 8 dereferenceable(12) %19) #10
  ret void

71:                                               ; preds = %53, %41
  call void @_ZN2cv5utils5trace7details6RegionD2Ev(ptr noundef nonnull align 8 dereferenceable(12) %19) #10
  br label %72

72:                                               ; preds = %71
  %73 = load ptr, ptr %21, align 8
  %74 = load i32, ptr %22, align 4
  %75 = insertvalue { ptr, i32 } poison, ptr %73, 0
  %76 = insertvalue { ptr, i32 } %75, i32 %74, 1
  resume { ptr, i32 } %76
}